target datalayout = "e-m:e-p270:32:32-p271:32:32-p272:64:64-i64:64-i128:128-f80:128-n8:16:32:64-S128"
target triple = "x86_64-pc-linux-gnu"

%"class.absl::lts_20240722::log_internal::Voidify" = type { i8 }
%"class.absl::lts_20240722::log_internal::LogMessage" = type { %"class.absl::lts_20240722::base_internal::ErrnoSaver", %"class.std::unique_ptr" }
%"class.absl::lts_20240722::base_internal::ErrnoSaver" = type { i32 }
%"class.std::unique_ptr" = type { %"struct.std::__uniq_ptr_data" }
%"struct.std::__uniq_ptr_data" = type { %"class.std::__uniq_ptr_impl" }
%"class.std::__uniq_ptr_impl" = type { %"class.std::tuple" }
%"class.std::tuple" = type { %"struct.std::_Tuple_impl" }
%"struct.std::_Tuple_impl" = type { %"struct.std::_Head_base.1" }
%"struct.std::_Head_base.1" = type { ptr }
%struct._grpc_gcp_RpcProtocolVersions = type { %struct._grpc_gcp_RpcProtocolVersions_Version, %struct._grpc_gcp_RpcProtocolVersions_Version }
%struct._grpc_gcp_RpcProtocolVersions_Version = type { i32, i32 }
%"class.std::basic_string_view" = type { i64, ptr }

@.str = private unnamed_addr constant [149 x i8] c"generated/home/dtcxzyw/WorkSpace/Projects/compilers/llvm-opt-benchmark/bench/grpc/grpc/src/core/tsi/alts/handshaker/transport_security_common_api.cc\00", align 1
@.str.7 = private unnamed_addr constant [61 x i8] c"Invalid arguments to grpc_gcp_rpc_protocol_versions_check().\00", align 1

; Function Attrs: noinline noreturn nounwind uwtable
define linkonce_odr hidden void @__clang_call_terminate(ptr noundef %0) #9 comdat {
  %2 = call ptr @__cxa_begin_catch(ptr %0) #15
  call void @_ZSt9terminatev() #18
  unreachable
}

; Function Attrs: mustprogress nounwind uwtable
define linkonce_odr noundef i64 @_ZNSt11char_traitsIcE6lengthEPKc(ptr noundef %0) #2 comdat align 2 {
  %2 = alloca ptr, align 8
  store ptr %0, ptr %2, align 8, !tbaa !18
  %3 = load ptr, ptr %2, align 8, !tbaa !18
  %4 = call i64 @strlen(ptr noundef %3) #15
  ret i64 %4
}

; Function Attrs: mustprogress nounwind uwtable
define linkonce_odr void @_ZNSt17basic_string_viewIcSt11char_traitsIcEEC2EPKc(ptr noundef nonnull align 8 dereferenceable(16) %0, ptr noundef nonnull %1) unnamed_addr #2 comdat align 2 personality ptr @__gxx_personality_v0 {
  %3 = alloca ptr, align 8
  %4 = alloca ptr, align 8
  store ptr %0, ptr %3, align 8, !tbaa !99
  store ptr %1, ptr %4, align 8, !tbaa !18
  %5 = load ptr, ptr %3, align 8
  %6 = getelementptr inbounds nuw %"class.std::basic_string_view", ptr %5, i32 0, i32 0
  %7 = load ptr, ptr %4, align 8, !tbaa !18
  %8 = invoke noundef i64 @_ZNSt11char_traitsIcE6lengthEPKc(ptr noundef %7)
          to label %9 unwind label %12

9:                                                ; preds = %2
  store i64 %8, ptr %6, align 8, !tbaa !101
  %10 = getelementptr inbounds nuw %"class.std::basic_string_view", ptr %5, i32 0, i32 1
  %11 = load ptr, ptr %4, align 8, !tbaa !18
  store ptr %11, ptr %10, align 8, !tbaa !103
  ret void

12:                                               ; preds = %2
  %13 = landingpad { ptr, i32 }
          catch ptr null
  %14 = extractvalue { ptr, i32 } %13, 0
  call void @__clang_call_terminate(ptr %14) #18
  unreachable
}

; Function Attrs: mustprogress nounwind uwtable
define noundef i32 @_ZN9grpc_core8internal37grpc_gcp_rpc_protocol_version_compareEPK37_grpc_gcp_RpcProtocolVersions_VersionS3_(ptr noundef %0, ptr noundef %1) #2 {
  %3 = alloca i32, align 4
  %4 = alloca ptr, align 8
  %5 = alloca ptr, align 8
  store ptr %0, ptr %4, align 8, !tbaa !43
  store ptr %1, ptr %5, align 8, !tbaa !43
  %6 = load ptr, ptr %4, align 8, !tbaa !43
  %7 = getelementptr inbounds nuw %struct._grpc_gcp_RpcProtocolVersions_Version, ptr %6, i32 0, i32 0
  %8 = load i32, ptr %7, align 4, !tbaa !45
  %9 = load ptr, ptr %5, align 8, !tbaa !43
  %10 = getelementptr inbounds nuw %struct._grpc_gcp_RpcProtocolVersions_Version, ptr %9, i32 0, i32 0
  %11 = load i32, ptr %10, align 4, !tbaa !45
  %12 = icmp ugt i32 %8, %11
  br i1 %12, label %29, label %13

13:                                               ; preds = %2
  %14 = load ptr, ptr %4, align 8, !tbaa !43
  %15 = getelementptr inbounds nuw %struct._grpc_gcp_RpcProtocolVersions_Version, ptr %14, i32 0, i32 0
  %16 = load i32, ptr %15, align 4, !tbaa !45
  %17 = load ptr, ptr %5, align 8, !tbaa !43
  %18 = getelementptr inbounds nuw %struct._grpc_gcp_RpcProtocolVersions_Version, ptr %17, i32 0, i32 0
  %19 = load i32, ptr %18, align 4, !tbaa !45
  %20 = icmp eq i32 %16, %19
  br i1 %20, label %21, label %30

21:                                               ; preds = %13
  %22 = load ptr, ptr %4, align 8, !tbaa !43
  %23 = getelementptr inbounds nuw %struct._grpc_gcp_RpcProtocolVersions_Version, ptr %22, i32 0, i32 1
  %24 = load i32, ptr %23, align 4, !tbaa !46
  %25 = load ptr, ptr %5, align 8, !tbaa !43
  %26 = getelementptr inbounds nuw %struct._grpc_gcp_RpcProtocolVersions_Version, ptr %25, i32 0, i32 1
  %27 = load i32, ptr %26, align 4, !tbaa !46
  %28 = icmp ugt i32 %24, %27
  br i1 %28, label %29, label %30

29:                                               ; preds = %21, %2
  store i32 1, ptr %3, align 4
  br label %56

30:                                               ; preds = %21, %13
  %31 = load ptr, ptr %4, align 8, !tbaa !43
  %32 = getelementptr inbounds nuw %struct._grpc_gcp_RpcProtocolVersions_Version, ptr %31, i32 0, i32 0
  %33 = load i32, ptr %32, align 4, !tbaa !45
  %34 = load ptr, ptr %5, align 8, !tbaa !43
  %35 = getelementptr inbounds nuw %struct._grpc_gcp_RpcProtocolVersions_Version, ptr %34, i32 0, i32 0
  %36 = load i32, ptr %35, align 4, !tbaa !45
  %37 = icmp ult i32 %33, %36
  br i1 %37, label %54, label %38

38:                                               ; preds = %30
  %39 = load ptr, ptr %4, align 8, !tbaa !43
  %40 = getelementptr inbounds nuw %struct._grpc_gcp_RpcProtocolVersions_Version, ptr %39, i32 0, i32 0
  %41 = load i32, ptr %40, align 4, !tbaa !45
  %42 = load ptr, ptr %5, align 8, !tbaa !43
  %43 = getelementptr inbounds nuw %struct._grpc_gcp_RpcProtocolVersions_Version, ptr %42, i32 0, i32 0
  %44 = load i32, ptr %43, align 4, !tbaa !45
  %45 = icmp eq i32 %41, %44
  br i1 %45, label %46, label %55

46:                                               ; preds = %38
  %47 = load ptr, ptr %4, align 8, !tbaa !43
  %48 = getelementptr inbounds nuw %struct._grpc_gcp_RpcProtocolVersions_Version, ptr %47, i32 0, i32 1
  %49 = load i32, ptr %48, align 4, !tbaa !46
  %50 = load ptr, ptr %5, align 8, !tbaa !43
  %51 = getelementptr inbounds nuw %struct._grpc_gcp_RpcProtocolVersions_Version, ptr %50, i32 0, i32 1
  %52 = load i32, ptr %51, align 4, !tbaa !46
  %53 = icmp ult i32 %49, %52
  br i1 %53, label %54, label %55

54:                                               ; preds = %46, %30
  store i32 -1, ptr %3, align 4
  br label %56

55:                                               ; preds = %46, %38
  store i32 0, ptr %3, align 4
  br label %56

56:                                               ; preds = %55, %54, %29
  %57 = load i32, ptr %3, align 4
  ret i32 %57
}

; Function Attrs: mustprogress nounwind uwtable
define linkonce_odr void @_ZNKO4absl12lts_2024072212log_internal7VoidifyaaINS1_10LogMessageEEEvRKT_(ptr noundef nonnull align 1 dereferenceable(1) %0, ptr noundef nonnull align 8 dereferenceable(16) %1) #2 comdat align 2 {
  %3 = alloca ptr, align 8
  %4 = alloca ptr, align 8
  store ptr %0, ptr %3, align 8, !tbaa !14
  store ptr %1, ptr %4, align 8, !tbaa !16
  ret void
}

; Function Attrs: mustprogress uwtable
define linkonce_odr noundef nonnull align 8 dereferenceable(16) ptr @_ZN4absl12lts_2024072212log_internal10LogMessagelsILi61EEERS2_RAT__Kc(ptr noundef nonnull align 8 dereferenceable(16) %0, ptr noundef nonnull align 1 dereferenceable(61) %1) #0 comdat align 2 {
  %3 = alloca ptr, align 8
  %4 = alloca ptr, align 8
  %5 = alloca %"class.std::basic_string_view", align 8
  store ptr %0, ptr %3, align 8, !tbaa !16
  store ptr %1, ptr %4, align 8, !tbaa !18
  %6 = load ptr, ptr %3, align 8
  %7 = load ptr, ptr %4, align 8, !tbaa !18
  %8 = getelementptr inbounds [61 x i8], ptr %7, i64 0, i64 0
  call void @_ZNSt17basic_string_viewIcSt11char_traitsIcEEC2EPKc(ptr noundef nonnull align 8 dereferenceable(16) %5, ptr noundef %8) #15
  %9 = getelementptr inbounds nuw { i64, ptr }, ptr %5, i32 0, i32 0
  %10 = load i64, ptr %9, align 8
  %11 = getelementptr inbounds nuw { i64, ptr }, ptr %5, i32 0, i32 1
  %12 = load ptr, ptr %11, align 8
  call void @_ZN4absl12lts_2024072212log_internal10LogMessage19CopyToEncodedBufferILNS2_10StringTypeE0EEEvSt17basic_string_viewIcSt11char_traitsIcEE(ptr noundef nonnull align 8 dereferenceable(16) %6, i64 %10, ptr %12)
  ret ptr %6
}

; Function Attrs: mustprogress nounwind uwtable
define linkonce_odr noundef nonnull align 8 dereferenceable(16) ptr @_ZN4absl12lts_2024072212log_internal10LogMessage14InternalStreamEv(ptr noundef nonnull align 8 dereferenceable(16) %0) #2 comdat align 2 {
  %2 = alloca ptr, align 8
  store ptr %0, ptr %2, align 8, !tbaa !16
  %3 = load ptr, ptr %2, align 8
  ret ptr %3
}

; Function Attrs: mustprogress uwtable
define noundef zeroext i1 @_Z36grpc_gcp_rpc_protocol_versions_checkPK29_grpc_gcp_RpcProtocolVersionsS1_P37_grpc_gcp_RpcProtocolVersions_Version(ptr noundef %0, ptr noundef %1, ptr noundef %2) #0 personality ptr @__gxx_personality_v0 {
  %4 = alloca i1, align 1
  %5 = alloca ptr, align 8
  %6 = alloca ptr, align 8
  %7 = alloca ptr, align 8
  %8 = alloca %"class.absl::lts_20240722::log_internal::Voidify", align 1
  %9 = alloca %"class.absl::lts_20240722::log_internal::LogMessage", align 8
  %10 = alloca ptr, align 8
  %11 = alloca i32, align 4
  %12 = alloca ptr, align 8
  %13 = alloca ptr, align 8
  %14 = alloca i8, align 1
  store ptr %0, ptr %5, align 8, !tbaa !3
  store ptr %1, ptr %6, align 8, !tbaa !3
  store ptr %2, ptr %7, align 8, !tbaa !43
  %15 = load ptr, ptr %5, align 8, !tbaa !3
  %16 = icmp eq ptr %15, null
  br i1 %16, label %20, label %17

17:                                               ; preds = %3
  %18 = load ptr, ptr %6, align 8, !tbaa !3
  %19 = icmp eq ptr %18, null
  br i1 %19, label %20, label %30

20:                                               ; preds = %17, %3
  call void @llvm.lifetime.start.p0(i64 1, ptr %8) #15
  call void @llvm.lifetime.start.p0(i64 16, ptr %9) #15
  call void @_ZN4absl12lts_2024072212log_internal10LogMessageC1EPKciNS2_8ErrorTagE(ptr noundef nonnull align 8 dereferenceable(16) %9, ptr noundef @.str, i32 noundef 193) #16
  %21 = invoke noundef nonnull align 8 dereferenceable(16) ptr @_ZN4absl12lts_2024072212log_internal10LogMessage14InternalStreamEv(ptr noundef nonnull align 8 dereferenceable(16) %9)
          to label %22 unwind label %26

22:                                               ; preds = %20
  %23 = invoke noundef nonnull align 8 dereferenceable(16) ptr @_ZN4absl12lts_2024072212log_internal10LogMessagelsILi61EEERS2_RAT__Kc(ptr noundef nonnull align 8 dereferenceable(16) %21, ptr noundef nonnull align 1 dereferenceable(61) @.str.7)
          to label %24 unwind label %26

24:                                               ; preds = %22
  invoke void @_ZNKO4absl12lts_2024072212log_internal7VoidifyaaINS1_10LogMessageEEEvRKT_(ptr noundef nonnull align 1 dereferenceable(1) %8, ptr noundef nonnull align 8 dereferenceable(16) %23)
          to label %25 unwind label %26

25:                                               ; preds = %24
  call void @_ZN4absl12lts_2024072212log_internal10LogMessageD1Ev(ptr noundef nonnull align 8 dereferenceable(16) %9) #17
  call void @llvm.lifetime.end.p0(i64 16, ptr %9) #15
  call void @llvm.lifetime.end.p0(i64 1, ptr %8) #15
  store i1 false, ptr %4, align 1
  br label %75

26:                                               ; preds = %24, %22, %20
  %27 = landingpad { ptr, i32 }
          cleanup
  %28 = extractvalue { ptr, i32 } %27, 0
  store ptr %28, ptr %10, align 8
  %29 = extractvalue { ptr, i32 } %27, 1
  store i32 %29, ptr %11, align 4
  call void @_ZN4absl12lts_2024072212log_internal10LogMessageD1Ev(ptr noundef nonnull align 8 dereferenceable(16) %9) #17
  call void @llvm.lifetime.end.p0(i64 16, ptr %9) #15
  call void @llvm.lifetime.end.p0(i64 1, ptr %8) #15
  br label %77

30:                                               ; preds = %17
  call void @llvm.lifetime.start.p0(i64 8, ptr %12) #15
  %31 = load ptr, ptr %5, align 8, !tbaa !3
  %32 = getelementptr inbounds nuw %struct._grpc_gcp_RpcProtocolVersions, ptr %31, i32 0, i32 0
  %33 = load ptr, ptr %6, align 8, !tbaa !3
  %34 = getelementptr inbounds nuw %struct._grpc_gcp_RpcProtocolVersions, ptr %33, i32 0, i32 0
  %35 = call noundef i32 @_ZN9grpc_core8internal37grpc_gcp_rpc_protocol_version_compareEPK37_grpc_gcp_RpcProtocolVersions_VersionS3_(ptr noundef %32, ptr noundef %34)
  %36 = icmp sgt i32 %35, 0
  br i1 %36, label %37, label %40

37:                                               ; preds = %30
  %38 = load ptr, ptr %6, align 8, !tbaa !3
  %39 = getelementptr inbounds nuw %struct._grpc_gcp_RpcProtocolVersions, ptr %38, i32 0, i32 0
  br label %43

40:                                               ; preds = %30
  %41 = load ptr, ptr %5, align 8, !tbaa !3
  %42 = getelementptr inbounds nuw %struct._grpc_gcp_RpcProtocolVersions, ptr %41, i32 0, i32 0
  br label %43

43:                                               ; preds = %40, %37
  %44 = phi ptr [ %39, %37 ], [ %42, %40 ]
  store ptr %44, ptr %12, align 8, !tbaa !43
  call void @llvm.lifetime.start.p0(i64 8, ptr %13) #15
  %45 = load ptr, ptr %5, align 8, !tbaa !3
  %46 = getelementptr inbounds nuw %struct._grpc_gcp_RpcProtocolVersions, ptr %45, i32 0, i32 1
  %47 = load ptr, ptr %6, align 8, !tbaa !3
  %48 = getelementptr inbounds nuw %struct._grpc_gcp_RpcProtocolVersions, ptr %47, i32 0, i32 1
  %49 = call noundef i32 @_ZN9grpc_core8internal37grpc_gcp_rpc_protocol_version_compareEPK37_grpc_gcp_RpcProtocolVersions_VersionS3_(ptr noundef %46, ptr noundef %48)
  %50 = icmp sgt i32 %49, 0
  br i1 %50, label %51, label %54

51:                                               ; preds = %43
  %52 = load ptr, ptr %5, align 8, !tbaa !3
  %53 = getelementptr inbounds nuw %struct._grpc_gcp_RpcProtocolVersions, ptr %52, i32 0, i32 1
  br label %57

54:                                               ; preds = %43
  %55 = load ptr, ptr %6, align 8, !tbaa !3
  %56 = getelementptr inbounds nuw %struct._grpc_gcp_RpcProtocolVersions, ptr %55, i32 0, i32 1
  br label %57

57:                                               ; preds = %54, %51
  %58 = phi ptr [ %53, %51 ], [ %56, %54 ]
  store ptr %58, ptr %13, align 8, !tbaa !43
  call void @llvm.lifetime.start.p0(i64 1, ptr %14) #15
  %59 = load ptr, ptr %12, align 8, !tbaa !43
  %60 = load ptr, ptr %13, align 8, !tbaa !43
  %61 = call noundef i32 @_ZN9grpc_core8internal37grpc_gcp_rpc_protocol_version_compareEPK37_grpc_gcp_RpcProtocolVersions_VersionS3_(ptr noundef %59, ptr noundef %60)
  %62 = icmp sge i32 %61, 0
  %63 = zext i1 %62 to i8
  store i8 %63, ptr %14, align 1, !tbaa !47
  %64 = load i8, ptr %14, align 1, !tbaa !47, !range !49, !noundef !50
  %65 = trunc i8 %64 to i1
  br i1 %65, label %66, label %72

66:                                               ; preds = %57
  %67 = load ptr, ptr %7, align 8, !tbaa !43
  %68 = icmp ne ptr %67, null
  br i1 %68, label %69, label %72

69:                                               ; preds = %66
  %70 = load ptr, ptr %7, align 8, !tbaa !43
  %71 = load ptr, ptr %12, align 8, !tbaa !43
  call void @llvm.memcpy.p0.p0.i64(ptr align 4 %70, ptr align 4 %71, i64 8, i1 false)
  br label %72

72:                                               ; preds = %69, %66, %57
  %73 = load i8, ptr %14, align 1, !tbaa !47, !range !49, !noundef !50
  %74 = trunc i8 %73 to i1
  store i1 %74, ptr %4, align 1
  call void @llvm.lifetime.end.p0(i64 1, ptr %14) #15
  call void @llvm.lifetime.end.p0(i64 8, ptr %13) #15
  call void @llvm.lifetime.end.p0(i64 8, ptr %12) #15
  br label %75

75:                                               ; preds = %72, %25
  %76 = load i1, ptr %4, align 1
  ret i1 %76

77:                                               ; preds = %26
  %78 = load ptr, ptr %10, align 8
  %79 = load i32, ptr %11, align 4
  %80 = insertvalue { ptr, i32 } poison, ptr %78, 0
  %81 = insertvalue { ptr, i32 } %80, i32 %79, 1
  resume { ptr, i32 } %81
}