; Function Attrs: mustprogress uwtable
define noundef zeroext i1 @_Z36grpc_gcp_rpc_protocol_versions_checkPK29_grpc_gcp_RpcProtocolVersionsS1_P37_grpc_gcp_RpcProtocolVersions_Version(ptr noundef readonly %0, ptr noundef readonly %1, ptr noundef writeonly %2) local_unnamed_addr #0 personality ptr @__gxx_personality_v0 {
  %4 = alloca %"class.absl::lts_20240722::log_internal::LogMessage", align 8
  %5 = icmp eq ptr %0, null
  %6 = icmp eq ptr %1, null
  %or.cond = or i1 %5, %6
  br i1 %or.cond, label %7, label %10

7:                                                ; preds = %3
  call void @llvm.lifetime.start.p0(i64 16, ptr nonnull %4) #11
  call void @_ZN4absl12lts_2024072212log_internal10LogMessageC1EPKciNS2_8ErrorTagE(ptr noundef nonnull align 8 dereferenceable(16) %4, ptr noundef nonnull @.str, i32 noundef 193) #12
  invoke void @_ZN4absl12lts_2024072212log_internal10LogMessage19CopyToEncodedBufferILNS2_10StringTypeE0EEEvSt17basic_string_viewIcSt11char_traitsIcEE(ptr noundef nonnull align 8 dereferenceable(16) %4, i64 60, ptr nonnull @.str.7)
          to label %_ZN4absl12lts_2024072212log_internal10LogMessagelsILi61EEERS2_RAT__Kc.exit unwind label %8

_ZN4absl12lts_2024072212log_internal10LogMessagelsILi61EEERS2_RAT__Kc.exit: ; preds = %7
  call void @_ZN4absl12lts_2024072212log_internal10LogMessageD1Ev(ptr noundef nonnull align 8 dereferenceable(16) %4) #13
  call void @llvm.lifetime.end.p0(i64 16, ptr nonnull %4) #11
  br label %_ZN9grpc_core8internal37grpc_gcp_rpc_protocol_version_compareEPK37_grpc_gcp_RpcProtocolVersions_VersionS3_.exit32.thread

8:                                                ; preds = %7
  %9 = landingpad { ptr, i32 }
          cleanup
  call void @_ZN4absl12lts_2024072212log_internal10LogMessageD1Ev(ptr noundef nonnull align 8 dereferenceable(16) %4) #13
  call void @llvm.lifetime.end.p0(i64 16, ptr nonnull %4) #11
  resume { ptr, i32 } %9

10:                                               ; preds = %3
  %11 = load i32, ptr %0, align 4, !tbaa !32
  %12 = load i32, ptr %1, align 4, !tbaa !32
  %13 = icmp ugt i32 %11, %12
  br i1 %13, label %_ZN9grpc_core8internal37grpc_gcp_rpc_protocol_version_compareEPK37_grpc_gcp_RpcProtocolVersions_VersionS3_.exit, label %14

14:                                               ; preds = %10
  %15 = icmp eq i32 %11, %12
  br i1 %15, label %16, label %_ZN9grpc_core8internal37grpc_gcp_rpc_protocol_version_compareEPK37_grpc_gcp_RpcProtocolVersions_VersionS3_.exit

16:                                               ; preds = %14
  %17 = getelementptr inbounds nuw i8, ptr %0, i64 4
  %18 = load i32, ptr %17, align 4, !tbaa !33
  %19 = getelementptr inbounds nuw i8, ptr %1, i64 4
  %20 = load i32, ptr %19, align 4, !tbaa !33
  %21 = icmp ugt i32 %18, %20
  %spec.select = select i1 %21, ptr %1, ptr %0
  br label %_ZN9grpc_core8internal37grpc_gcp_rpc_protocol_version_compareEPK37_grpc_gcp_RpcProtocolVersions_VersionS3_.exit

_ZN9grpc_core8internal37grpc_gcp_rpc_protocol_version_compareEPK37_grpc_gcp_RpcProtocolVersions_VersionS3_.exit: ; preds = %16, %14, %10
  %22 = phi ptr [ %1, %10 ], [ %0, %14 ], [ %spec.select, %16 ]
  %23 = getelementptr inbounds nuw i8, ptr %0, i64 8
  %24 = getelementptr inbounds nuw i8, ptr %1, i64 8
  %25 = load i32, ptr %23, align 4, !tbaa !32
  %26 = load i32, ptr %24, align 4, !tbaa !32
  %27 = icmp ugt i32 %25, %26
  br i1 %27, label %_ZN9grpc_core8internal37grpc_gcp_rpc_protocol_version_compareEPK37_grpc_gcp_RpcProtocolVersions_VersionS3_.exit28, label %28

28:                                               ; preds = %_ZN9grpc_core8internal37grpc_gcp_rpc_protocol_version_compareEPK37_grpc_gcp_RpcProtocolVersions_VersionS3_.exit
  %29 = icmp eq i32 %25, %26
  br i1 %29, label %30, label %_ZN9grpc_core8internal37grpc_gcp_rpc_protocol_version_compareEPK37_grpc_gcp_RpcProtocolVersions_VersionS3_.exit28

30:                                               ; preds = %28
  %31 = getelementptr inbounds nuw i8, ptr %0, i64 12
  %32 = load i32, ptr %31, align 4, !tbaa !33
  %33 = getelementptr inbounds nuw i8, ptr %1, i64 12
  %34 = load i32, ptr %33, align 4, !tbaa !33
  %35 = icmp ugt i32 %32, %34
  %spec.select37 = select i1 %35, ptr %23, ptr %24
  br label %_ZN9grpc_core8internal37grpc_gcp_rpc_protocol_version_compareEPK37_grpc_gcp_RpcProtocolVersions_VersionS3_.exit28

_ZN9grpc_core8internal37grpc_gcp_rpc_protocol_version_compareEPK37_grpc_gcp_RpcProtocolVersions_VersionS3_.exit28: ; preds = %28, %30, %_ZN9grpc_core8internal37grpc_gcp_rpc_protocol_version_compareEPK37_grpc_gcp_RpcProtocolVersions_VersionS3_.exit
  %36 = phi i32 [ %25, %_ZN9grpc_core8internal37grpc_gcp_rpc_protocol_version_compareEPK37_grpc_gcp_RpcProtocolVersions_VersionS3_.exit ], [ %25, %30 ], [ %26, %28 ]
  %37 = phi ptr [ %23, %_ZN9grpc_core8internal37grpc_gcp_rpc_protocol_version_compareEPK37_grpc_gcp_RpcProtocolVersions_VersionS3_.exit ], [ %spec.select37, %30 ], [ %24, %28 ]
  %38 = load i32, ptr %22, align 4, !tbaa !32
  %39 = icmp ugt i32 %38, %36
  br i1 %39, label %_ZN9grpc_core8internal37grpc_gcp_rpc_protocol_version_compareEPK37_grpc_gcp_RpcProtocolVersions_VersionS3_.exit32, label %40

40:                                               ; preds = %_ZN9grpc_core8internal37grpc_gcp_rpc_protocol_version_compareEPK37_grpc_gcp_RpcProtocolVersions_VersionS3_.exit28
  %41 = icmp eq i32 %38, %36
  br i1 %41, label %42, label %.thread.i29

42:                                               ; preds = %40
  %43 = getelementptr inbounds nuw i8, ptr %22, i64 4
  %44 = load i32, ptr %43, align 4, !tbaa !33
  %45 = getelementptr inbounds nuw i8, ptr %37, i64 4
  %46 = load i32, ptr %45, align 4, !tbaa !33
  %47 = icmp ult i32 %44, %46
  br i1 %47, label %_ZN9grpc_core8internal37grpc_gcp_rpc_protocol_version_compareEPK37_grpc_gcp_RpcProtocolVersions_VersionS3_.exit32.thread, label %_ZN9grpc_core8internal37grpc_gcp_rpc_protocol_version_compareEPK37_grpc_gcp_RpcProtocolVersions_VersionS3_.exit32

.thread.i29:                                      ; preds = %40
  %48 = icmp ult i32 %38, %36
  br i1 %48, label %_ZN9grpc_core8internal37grpc_gcp_rpc_protocol_version_compareEPK37_grpc_gcp_RpcProtocolVersions_VersionS3_.exit32.thread, label %_ZN9grpc_core8internal37grpc_gcp_rpc_protocol_version_compareEPK37_grpc_gcp_RpcProtocolVersions_VersionS3_.exit32

_ZN9grpc_core8internal37grpc_gcp_rpc_protocol_version_compareEPK37_grpc_gcp_RpcProtocolVersions_VersionS3_.exit32: ; preds = %.thread.i29, %_ZN9grpc_core8internal37grpc_gcp_rpc_protocol_version_compareEPK37_grpc_gcp_RpcProtocolVersions_VersionS3_.exit28, %42
  %.not = icmp eq ptr %2, null
  br i1 %.not, label %_ZN9grpc_core8internal37grpc_gcp_rpc_protocol_version_compareEPK37_grpc_gcp_RpcProtocolVersions_VersionS3_.exit32.thread, label %49

49:                                               ; preds = %_ZN9grpc_core8internal37grpc_gcp_rpc_protocol_version_compareEPK37_grpc_gcp_RpcProtocolVersions_VersionS3_.exit32
  %50 = load i64, ptr %22, align 4
  store i64 %50, ptr %2, align 4
  br label %_ZN9grpc_core8internal37grpc_gcp_rpc_protocol_version_compareEPK37_grpc_gcp_RpcProtocolVersions_VersionS3_.exit32.thread

_ZN9grpc_core8internal37grpc_gcp_rpc_protocol_version_compareEPK37_grpc_gcp_RpcProtocolVersions_VersionS3_.exit32.thread: ; preds = %42, %.thread.i29, %_ZN9grpc_core8internal37grpc_gcp_rpc_protocol_version_compareEPK37_grpc_gcp_RpcProtocolVersions_VersionS3_.exit32, %49, %_ZN4absl12lts_2024072212log_internal10LogMessagelsILi61EEERS2_RAT__Kc.exit
  %.0 = phi i1 [ false, %_ZN4absl12lts_2024072212log_internal10LogMessagelsILi61EEERS2_RAT__Kc.exit ], [ true, %49 ], [ true, %_ZN9grpc_core8internal37grpc_gcp_rpc_protocol_version_compareEPK37_grpc_gcp_RpcProtocolVersions_VersionS3_.exit32 ], [ false, %.thread.i29 ], [ false, %42 ]
  ret i1 %.0
}